; Function Attrs: mustprogress uwtable
define hidden noundef nonnull align 8 dereferenceable(8) ptr @_ZN3smtlsERSoN3sat7literalE(ptr noundef nonnull returned align 8 dereferenceable(8) %0, i32 %1) local_unnamed_addr #4 {
  %3 = load i32, ptr @_ZN3smtL12true_literalE, align 4, !tbaa !3
  %4 = icmp eq i32 %1, %3
  br i1 %4, label %5, label %7

5:                                                ; preds = %2
  %6 = tail call noundef nonnull align 8 dereferenceable(8) ptr @_ZSt16__ostream_insertIcSt11char_traitsIcEERSt13basic_ostreamIT_T0_ES6_PKS3_l(ptr noundef nonnull align 8 dereferenceable(8) %0, ptr noundef nonnull @.str, i64 noundef 4)
  br label %23

7:                                                ; preds = %2
  %8 = load i32, ptr @_ZN3smtL13false_literalE, align 4, !tbaa !3
  %9 = icmp eq i32 %1, %8
  br i1 %9, label %10, label %12

10:                                               ; preds = %7
  %11 = tail call noundef nonnull align 8 dereferenceable(8) ptr @_ZSt16__ostream_insertIcSt11char_traitsIcEERSt13basic_ostreamIT_T0_ES6_PKS3_l(ptr noundef nonnull align 8 dereferenceable(8) %0, ptr noundef nonnull @.str.3, i64 noundef 5)
  br label %23

12:                                               ; preds = %7
  %13 = and i32 %1, 1
  %.not = icmp eq i32 %13, 0
  br i1 %.not, label %19, label %14

14:                                               ; preds = %12
  %15 = tail call noundef nonnull align 8 dereferenceable(8) ptr @_ZSt16__ostream_insertIcSt11char_traitsIcEERSt13basic_ostreamIT_T0_ES6_PKS3_l(ptr noundef nonnull align 8 dereferenceable(8) %0, ptr noundef nonnull @.str.9, i64 noundef 1)
  %16 = lshr i32 %1, 1
  %17 = zext nneg i32 %16 to i64
  %18 = tail call noundef nonnull align 8 dereferenceable(8) ptr @_ZNSo9_M_insertImEERSoT_(ptr noundef nonnull align 8 dereferenceable(8) %0, i64 noundef %17)
  br label %23

19:                                               ; preds = %12
  %20 = lshr exact i32 %1, 1
  %21 = zext nneg i32 %20 to i64
  %22 = tail call noundef nonnull align 8 dereferenceable(8) ptr @_ZNSo9_M_insertImEERSoT_(ptr noundef nonnull align 8 dereferenceable(8) %0, i64 noundef %21)
  br label %23

23:                                               ; preds = %10, %19, %14, %5
  ret ptr %0
}